---
triple:          'arm64-apple-darwin'
binary-path:     '/Users/jvmcpheron/Documents/Code/CS2/CS2_Lab11/main'
relocations:
  - { offsetInCU: 0x468E, offset: 0x468E, size: 0x8, addend: 0x0, symName: __ZNSt3__124__put_character_sequenceB7v160006IcNS_11char_traitsIcEEEERNS_13basic_ostreamIT_T0_EES7_PKS4_m, symObjAddr: 0x18D0, symBinAddr: 0x1000036A0, symSize: 0x1EC }
  - { offsetInCU: 0x7166, offset: 0x7166, size: 0x8, addend: 0x0, symName: __ZNSt3__1lsB7v160006INS_11char_traitsIcEEEERNS_13basic_ostreamIcT_EES6_PKc, symObjAddr: 0x244, symBinAddr: 0x100002014, symSize: 0x48 }
  - { offsetInCU: 0x71AC, offset: 0x71AC, size: 0x8, addend: 0x0, symName: __ZNSt3__14endlB7v160006IcNS_11char_traitsIcEEEERNS_13basic_ostreamIT_T0_EES7_, symObjAddr: 0x2B8, symBinAddr: 0x100002088, symSize: 0x58 }
  - { offsetInCU: 0x73F7, offset: 0x73F7, size: 0x8, addend: 0x0, symName: __ZNSt3__1neB7v160006IcNS_11char_traitsIcEENS_9allocatorIcEEEEbRKNS_12basic_stringIT_T0_T1_EEPKS6_, symObjAddr: 0x5B0, symBinAddr: 0x100002380, symSize: 0x34 }
  - { offsetInCU: 0x744F, offset: 0x744F, size: 0x8, addend: 0x0, symName: __ZNSt3__1rsB7v160006IcNS_11char_traitsIcEENS_9allocatorIcEEEERNS_13basic_istreamIT_T0_EES9_RNS_12basic_stringIS6_S7_T1_EE, symObjAddr: 0x5E4, symBinAddr: 0x1000023B4, symSize: 0x30C }
  - { offsetInCU: 0x751C, offset: 0x751C, size: 0x8, addend: 0x0, symName: __ZNSt3__1eqB7v160006IcNS_11char_traitsIcEENS_9allocatorIcEEEEbRKNS_12basic_stringIT_T0_T1_EEPKS6_, symObjAddr: 0x8F0, symBinAddr: 0x1000026C0, symSize: 0xAC }
  - { offsetInCU: 0x7583, offset: 0x7583, size: 0x8, addend: 0x0, symName: __ZNSt3__1neB7v160006ERKNS_16__deque_iteratorIP10BinaryNodePS2_RS2_PS3_lLl512EEES8_, symObjAddr: 0x1054, symBinAddr: 0x100002E24, symSize: 0x34 }
  - { offsetInCU: 0x75C0, offset: 0x75C0, size: 0x8, addend: 0x0, symName: __ZNSt3__1eqB7v160006ERKNS_16__deque_iteratorIP10BinaryNodePS2_RS2_PS3_lLl512EEES8_, symObjAddr: 0x12F4, symBinAddr: 0x1000030C4, symSize: 0x30 }
  - { offsetInCU: 0x75FD, offset: 0x75FD, size: 0x8, addend: 0x0, symName: __ZNSt3__119__libcpp_deallocateB7v160006EPvmm, symObjAddr: 0x13FC, symBinAddr: 0x1000031CC, symSize: 0x30 }
  - { offsetInCU: 0x7645, offset: 0x7645, size: 0x8, addend: 0x0, symName: __ZNSt3__127__do_deallocate_handle_sizeB7v160006IJEEEvPvmDpT_, symObjAddr: 0x142C, symBinAddr: 0x1000031FC, symSize: 0x28 }
  - { offsetInCU: 0x7683, offset: 0x7683, size: 0x8, addend: 0x0, symName: __ZNSt3__124__libcpp_operator_deleteB7v160006IJPvEEEvDpT_, symObjAddr: 0x1454, symBinAddr: 0x100003224, symSize: 0x24 }
  - { offsetInCU: 0x76B8, offset: 0x76B8, size: 0x8, addend: 0x0, symName: __ZNSt3__112__to_addressB7v160006IPP10BinaryNodeEEPT_S5_, symObjAddr: 0x16D8, symBinAddr: 0x1000034A8, symSize: 0x14 }
  - { offsetInCU: 0x76ED, offset: 0x76ED, size: 0x8, addend: 0x0, symName: __ZNSt3__116__pad_and_outputB7v160006IcNS_11char_traitsIcEEEENS_19ostreambuf_iteratorIT_T0_EES6_PKS4_S8_S8_RNS_8ios_baseES4_, symObjAddr: 0x1B0C, symBinAddr: 0x1000038DC, symSize: 0x240 }
  - { offsetInCU: 0x77BC, offset: 0x77BC, size: 0x8, addend: 0x0, symName: __ZNSt3__119__debug_db_insert_cB7v160006INS_12basic_stringIcNS_11char_traitsIcEENS_9allocatorIcEEEEEEvPT_, symObjAddr: 0x1FC0, symBinAddr: 0x100003D90, symSize: 0x10 }
  - { offsetInCU: 0x77ED, offset: 0x77ED, size: 0x8, addend: 0x0, symName: __ZNSt3__112__to_addressB7v160006IKcEEPT_S3_, symObjAddr: 0x208C, symBinAddr: 0x100003E5C, symSize: 0x14 }
  - { offsetInCU: 0x7855, offset: 0x7855, size: 0x8, addend: 0x0, symName: __ZNSt3__19use_facetB7v160006INS_5ctypeIcEEEERKT_RKNS_6localeE, symObjAddr: 0x230C, symBinAddr: 0x1000040DC, symSize: 0x2C }
  - { offsetInCU: 0x7C35, offset: 0x7C35, size: 0x8, addend: 0x0, symName: __ZNSt3__118__constexpr_strlenB7v160006EPKc, symObjAddr: 0x23A4, symBinAddr: 0x100004174, symSize: 0x24 }
  - { offsetInCU: 0x7C61, offset: 0x7C61, size: 0x8, addend: 0x0, symName: __ZNSt3__13maxB7v160006ImEERKT_S3_S3_, symObjAddr: 0x3338, symBinAddr: 0x100005108, symSize: 0x2C }
  - { offsetInCU: 0x80FD, offset: 0x80FD, size: 0x8, addend: 0x0, symName: __ZNSt3__14swapB7v160006IPPP10BinaryNodeEENS_9enable_ifIXaasr21is_move_constructibleIT_EE5valuesr18is_move_assignableIS6_EE5valueEvE4typeERS6_S9_, symObjAddr: 0x3948, symBinAddr: 0x100005718, symSize: 0x3C }
  - { offsetInCU: 0x814E, offset: 0x814E, size: 0x8, addend: 0x0, symName: __ZNSt3__14moveB7v160006IPPP10BinaryNodeS4_EET0_T_S6_S5_, symObjAddr: 0x3A2C, symBinAddr: 0x1000057FC, symSize: 0x40 }
  - { offsetInCU: 0x81C4, offset: 0x81C4, size: 0x8, addend: 0x0, symName: __ZNSt3__16__moveB7v160006INS_17_ClassicAlgPolicyEPPP10BinaryNodeS5_S5_EENS_4pairIT0_T2_EES7_T1_S8_, symObjAddr: 0x3BD0, symBinAddr: 0x1000059A0, symSize: 0x44 }
  - { offsetInCU: 0x8230, offset: 0x8230, size: 0x8, addend: 0x0, symName: __ZNSt3__123__dispatch_copy_or_moveB7v160006INS_17_ClassicAlgPolicyENS_11__move_loopIS1_EENS_14__move_trivialEPPP10BinaryNodeS8_S8_EENS_4pairIT2_T4_EESA_T3_SB_, symObjAddr: 0x3C14, symBinAddr: 0x1000059E4, symSize: 0x44 }
  - { offsetInCU: 0x82AE, offset: 0x82AE, size: 0x8, addend: 0x0, symName: __ZNSt3__121__unwrap_and_dispatchB7v160006INS_10__overloadINS_11__move_loopINS_17_ClassicAlgPolicyEEENS_14__move_trivialEEEPPP10BinaryNodeSA_SA_Li0EEENS_4pairIT0_T2_EESC_T1_SD_, symObjAddr: 0x3C58, symBinAddr: 0x100005A28, symSize: 0xB4 }
  - { offsetInCU: 0x833C, offset: 0x833C, size: 0x8, addend: 0x0, symName: __ZNSt3__114__unwrap_rangeB7v160006IPPP10BinaryNodeS4_EENS_4pairIT0_S6_EET_S8_, symObjAddr: 0x3D0C, symBinAddr: 0x100005ADC, symSize: 0x60 }
  - { offsetInCU: 0x8500, offset: 0x8500, size: 0x8, addend: 0x0, symName: __ZNSt3__113__unwrap_iterB7v160006IPPP10BinaryNodeNS_18__unwrap_iter_implIS4_Lb1EEELi0EEEDTclsrT0_8__unwrapclsr3stdE7declvalIT_EEEES8_, symObjAddr: 0x3DB4, symBinAddr: 0x100005B84, symSize: 0x24 }
  - { offsetInCU: 0x8544, offset: 0x8544, size: 0x8, addend: 0x0, symName: __ZNSt3__19make_pairB7v160006IPPP10BinaryNodeS4_EENS_4pairINS_18__unwrap_ref_decayIT_E4typeENS6_IT0_E4typeEEEOS7_OSA_, symObjAddr: 0x3DD8, symBinAddr: 0x100005BA8, symSize: 0x38 }
  - { offsetInCU: 0x8593, offset: 0x8593, size: 0x8, addend: 0x0, symName: __ZNSt3__114__rewrap_rangeB7v160006IPPP10BinaryNodeS4_EET_S5_T0_, symObjAddr: 0x3E10, symBinAddr: 0x100005BE0, symSize: 0x2C }
  - { offsetInCU: 0x85DF, offset: 0x85DF, size: 0x8, addend: 0x0, symName: __ZNSt3__113__rewrap_iterB7v160006IPPP10BinaryNodeS4_NS_18__unwrap_iter_implIS4_Lb1EEEEET_S7_T0_, symObjAddr: 0x3E3C, symBinAddr: 0x100005C0C, symSize: 0x3C }
  - { offsetInCU: 0x8634, offset: 0x8634, size: 0x8, addend: 0x0, symName: __ZNSt3__119__copy_trivial_implB7v160006IPP10BinaryNodeS3_EENS_4pairIPT_PT0_EES6_S6_S8_, symObjAddr: 0x3E78, symBinAddr: 0x100005C48, symSize: 0x84 }
  - { offsetInCU: 0x869C, offset: 0x869C, size: 0x8, addend: 0x0, symName: __ZNSt3__19make_pairB7v160006IRPPP10BinaryNodeS4_EENS_4pairINS_18__unwrap_ref_decayIT_E4typeENS7_IT0_E4typeEEEOS8_OSB_, symObjAddr: 0x3EFC, symBinAddr: 0x100005CCC, symSize: 0x38 }
  - { offsetInCU: 0x873E, offset: 0x873E, size: 0x8, addend: 0x0, symName: __ZNSt3__18distanceB7v160006INS_13move_iteratorIPPP10BinaryNodeEEEENS_15iterator_traitsIT_E15difference_typeES8_S8_, symObjAddr: 0x4088, symBinAddr: 0x100005E58, symSize: 0x3C }
  - { offsetInCU: 0x8781, offset: 0x8781, size: 0x8, addend: 0x0, symName: __ZNSt3__110__distanceB7v160006INS_13move_iteratorIPPP10BinaryNodeEEEENS_15iterator_traitsIT_E15difference_typeES8_S8_NS_26random_access_iterator_tagE, symObjAddr: 0x41C0, symBinAddr: 0x100005F90, symSize: 0x30 }
  - { offsetInCU: 0x87CE, offset: 0x87CE, size: 0x8, addend: 0x0, symName: __ZNSt3__1miB7v160006IPPP10BinaryNodeS4_EEDTmicldtfp_4baseEcldtfp0_4baseEERKNS_13move_iteratorIT_EERKNS6_IT0_EE, symObjAddr: 0x41F0, symBinAddr: 0x100005FC0, symSize: 0x48 }
  - { offsetInCU: 0x881D, offset: 0x881D, size: 0x8, addend: 0x0, symName: __ZNSt3__117__libcpp_allocateB7v160006Emm, symObjAddr: 0x4414, symBinAddr: 0x1000061E4, symSize: 0x28 }
  - { offsetInCU: 0x885A, offset: 0x885A, size: 0x8, addend: 0x0, symName: __ZNSt3__121__libcpp_operator_newB7v160006IJmEEEPvDpT_, symObjAddr: 0x4450, symBinAddr: 0x100006220, symSize: 0x24 }
  - { offsetInCU: 0x8893, offset: 0x8893, size: 0x8, addend: 0x0, symName: __ZNSt3__113move_backwardB7v160006IPPP10BinaryNodeS4_EET0_T_S6_S5_, symObjAddr: 0x4474, symBinAddr: 0x100006244, symSize: 0x40 }
  - { offsetInCU: 0x88ED, offset: 0x88ED, size: 0x8, addend: 0x0, symName: __ZNSt3__115__move_backwardB7v160006INS_17_ClassicAlgPolicyEPPP10BinaryNodeS5_S5_EENS_4pairIT0_T2_EES7_T1_S8_, symObjAddr: 0x44B4, symBinAddr: 0x100006284, symSize: 0x44 }
  - { offsetInCU: 0x8959, offset: 0x8959, size: 0x8, addend: 0x0, symName: __ZNSt3__123__dispatch_copy_or_moveB7v160006INS_17_ClassicAlgPolicyENS_20__move_backward_loopIS1_EENS_23__move_backward_trivialEPPP10BinaryNodeS8_S8_EENS_4pairIT2_T4_EESA_T3_SB_, symObjAddr: 0x44F8, symBinAddr: 0x1000062C8, symSize: 0x44 }
  - { offsetInCU: 0x89D7, offset: 0x89D7, size: 0x8, addend: 0x0, symName: __ZNSt3__121__unwrap_and_dispatchB7v160006INS_10__overloadINS_20__move_backward_loopINS_17_ClassicAlgPolicyEEENS_23__move_backward_trivialEEEPPP10BinaryNodeSA_SA_Li0EEENS_4pairIT0_T2_EESC_T1_SD_, symObjAddr: 0x453C, symBinAddr: 0x10000630C, symSize: 0xB4 }
  - { offsetInCU: 0x8AAB, offset: 0x8AAB, size: 0x8, addend: 0x0, symName: __ZNSt3__128__copy_backward_trivial_implB7v160006IPP10BinaryNodeS3_EENS_4pairIPT_PT0_EES6_S6_S8_, symObjAddr: 0x4638, symBinAddr: 0x100006408, symSize: 0x94 }
  - { offsetInCU: 0x8B13, offset: 0x8B13, size: 0x8, addend: 0x0, symName: __ZNSt3__19make_pairB7v160006IRPPP10BinaryNodeS5_EENS_4pairINS_18__unwrap_ref_decayIT_E4typeENS7_IT0_E4typeEEEOS8_OSB_, symObjAddr: 0x46CC, symBinAddr: 0x10000649C, symSize: 0x38 }
  - { offsetInCU: 0x8B62, offset: 0x8B62, size: 0x8, addend: 0x0, symName: __ZNSt3__13maxB7v160006ImNS_6__lessImmEEEERKT_S5_S5_T0_, symObjAddr: 0x4774, symBinAddr: 0x100006544, symSize: 0x54 }
  - { offsetInCU: 0x8BF7, offset: 0x8BF7, size: 0x8, addend: 0x0, symName: __ZNSt3__119__allocate_at_leastB7v160006INS_9allocatorIPP10BinaryNodeEEEENS_19__allocation_resultINS_16allocator_traitsIT_E7pointerEEERS8_m, symObjAddr: 0x490C, symBinAddr: 0x1000066DC, symSize: 0x40 }
  - { offsetInCU: 0x8C3A, offset: 0x8C3A, size: 0x8, addend: 0x0, symName: __ZNSt3__112__to_addressB7v160006IP10BinaryNodeEEPT_S4_, symObjAddr: 0x50A8, symBinAddr: 0x100006E78, symSize: 0x14 }
  - { offsetInCU: 0x93FA, offset: 0x93FA, size: 0x8, addend: 0x0, symName: __ZNSt3__125__debug_db_invalidate_allB7v160006INS_12basic_stringIcNS_11char_traitsIcEENS_9allocatorIcEEEEEEvPT_, symObjAddr: 0x558C, symBinAddr: 0x10000735C, symSize: 0x10 }
  - { offsetInCU: 0x980C, offset: 0x980C, size: 0x8, addend: 0x0, symName: __ZSt28__throw_bad_array_new_lengthB7v160006v, symObjAddr: 0x43E0, symBinAddr: 0x1000061B0, symSize: 0x34 }
  - { offsetInCU: 0xC10F, offset: 0xC10F, size: 0x8, addend: 0x0, symName: __Z9printTree10BinaryNode, symObjAddr: 0x0, symBinAddr: 0x100001DD0, symSize: 0x22C }
  - { offsetInCU: 0xC195, offset: 0xC195, size: 0x8, addend: 0x0, symName: __ZN10BinaryNode7getDataEv, symObjAddr: 0x22C, symBinAddr: 0x100001FFC, symSize: 0x18 }
  - { offsetInCU: 0xC1BB, offset: 0xC1BB, size: 0x8, addend: 0x0, symName: __ZNSt3__113basic_ostreamIcNS_11char_traitsIcEEElsB7v160006EPFRS3_S4_E, symObjAddr: 0x28C, symBinAddr: 0x10000205C, symSize: 0x2C }
  - { offsetInCU: 0xC22B, offset: 0xC22B, size: 0x8, addend: 0x0, symName: __ZNSt3__15queueIP10BinaryNodeNS_5dequeIS2_NS_9allocatorIS2_EEEEEC1B7v160006Ev, symObjAddr: 0x310, symBinAddr: 0x1000020E0, symSize: 0x2C }
  - { offsetInCU: 0xC255, offset: 0xC255, size: 0x8, addend: 0x0, symName: __ZNSt3__15queueIP10BinaryNodeNS_5dequeIS2_NS_9allocatorIS2_EEEEE4pushB7v160006EOS2_, symObjAddr: 0x33C, symBinAddr: 0x10000210C, symSize: 0x2C }
  - { offsetInCU: 0xC28A, offset: 0xC28A, size: 0x8, addend: 0x0, symName: __ZNKSt3__15queueIP10BinaryNodeNS_5dequeIS2_NS_9allocatorIS2_EEEEE5emptyB7v160006Ev, symObjAddr: 0x368, symBinAddr: 0x100002138, symSize: 0x28 }
  - { offsetInCU: 0xC2B0, offset: 0xC2B0, size: 0x8, addend: 0x0, symName: __ZNKSt3__15queueIP10BinaryNodeNS_5dequeIS2_NS_9allocatorIS2_EEEEE4sizeB7v160006Ev, symObjAddr: 0x390, symBinAddr: 0x100002160, symSize: 0x24 }
  - { offsetInCU: 0xC2D6, offset: 0xC2D6, size: 0x8, addend: 0x0, symName: __ZNSt3__15queueIP10BinaryNodeNS_5dequeIS2_NS_9allocatorIS2_EEEEE5frontB7v160006Ev, symObjAddr: 0x3B4, symBinAddr: 0x100002184, symSize: 0x24 }
  - { offsetInCU: 0xC2FC, offset: 0xC2FC, size: 0x8, addend: 0x0, symName: __ZNSt3__15queueIP10BinaryNodeNS_5dequeIS2_NS_9allocatorIS2_EEEEE3popB7v160006Ev, symObjAddr: 0x3D8, symBinAddr: 0x1000021A8, symSize: 0x24 }
  - { offsetInCU: 0xC322, offset: 0xC322, size: 0x8, addend: 0x0, symName: __ZN10BinaryNode7getLeftEv, symObjAddr: 0x3FC, symBinAddr: 0x1000021CC, symSize: 0x18 }
  - { offsetInCU: 0xC348, offset: 0xC348, size: 0x8, addend: 0x0, symName: __ZN10BinaryNode8getRightEv, symObjAddr: 0x414, symBinAddr: 0x1000021E4, symSize: 0x18 }
  - { offsetInCU: 0xC36E, offset: 0xC36E, size: 0x8, addend: 0x0, symName: __ZNSt3__15queueIP10BinaryNodeNS_5dequeIS2_NS_9allocatorIS2_EEEEED1Ev, symObjAddr: 0x42C, symBinAddr: 0x1000021FC, symSize: 0x2C }
  - { offsetInCU: 0xC39B, offset: 0xC39B, size: 0x8, addend: 0x0, symName: _main, symObjAddr: 0x458, symBinAddr: 0x100002228, symSize: 0xF8 }
  - { offsetInCU: 0xC4EE, offset: 0xC4EE, size: 0x8, addend: 0x0, symName: __ZN10BinaryTreeC1Ev, symObjAddr: 0x550, symBinAddr: 0x100002320, symSize: 0x2C }
  - { offsetInCU: 0xC51D, offset: 0xC51D, size: 0x8, addend: 0x0, symName: __ZNSt3__112basic_stringIcNS_11char_traitsIcEENS_9allocatorIcEEEC1B7v160006IDnEEPKc, symObjAddr: 0x57C, symBinAddr: 0x10000234C, symSize: 0x34 }
  - { offsetInCU: 0xC55B, offset: 0xC55B, size: 0x8, addend: 0x0, symName: __ZN10BinaryTree6insertEi, symObjAddr: 0x99C, symBinAddr: 0x10000276C, symSize: 0x218 }
  - { offsetInCU: 0xC5BA, offset: 0xC5BA, size: 0x8, addend: 0x0, symName: __ZNSt3__15queueIP10BinaryNodeNS_5dequeIS2_NS_9allocatorIS2_EEEEED2Ev, symObjAddr: 0xBB4, symBinAddr: 0x100002984, symSize: 0x2C }
  - { offsetInCU: 0xC5E7, offset: 0xC5E7, size: 0x8, addend: 0x0, symName: __ZNSt3__15dequeIP10BinaryNodeNS_9allocatorIS2_EEED1B7v160006Ev, symObjAddr: 0xBE0, symBinAddr: 0x1000029B0, symSize: 0x2C }
  - { offsetInCU: 0xC611, offset: 0xC611, size: 0x8, addend: 0x0, symName: __ZNSt3__15dequeIP10BinaryNodeNS_9allocatorIS2_EEED2B7v160006Ev, symObjAddr: 0xC0C, symBinAddr: 0x1000029DC, symSize: 0x9C }
  - { offsetInCU: 0xC668, offset: 0xC668, size: 0x8, addend: 0x0, symName: __ZNSt3__15dequeIP10BinaryNodeNS_9allocatorIS2_EEE5clearEv, symObjAddr: 0xCA8, symBinAddr: 0x100002A78, symSize: 0x180 }
  - { offsetInCU: 0xC6C3, offset: 0xC6C3, size: 0x8, addend: 0x0, symName: __ZNSt3__114__split_bufferIPP10BinaryNodeNS_9allocatorIS3_EEE5beginB7v160006Ev, symObjAddr: 0xE28, symBinAddr: 0x100002BF8, symSize: 0x18 }
  - { offsetInCU: 0xC6E9, offset: 0xC6E9, size: 0x8, addend: 0x0, symName: __ZNSt3__114__split_bufferIPP10BinaryNodeNS_9allocatorIS3_EEE3endB7v160006Ev, symObjAddr: 0xE40, symBinAddr: 0x100002C10, symSize: 0x18 }
  - { offsetInCU: 0xC70F, offset: 0xC70F, size: 0x8, addend: 0x0, symName: __ZNSt3__116allocator_traitsINS_9allocatorIP10BinaryNodeEEE10deallocateB7v160006ERS4_PS3_m, symObjAddr: 0xE58, symBinAddr: 0x100002C28, symSize: 0x34 }
  - { offsetInCU: 0xC751, offset: 0xC751, size: 0x8, addend: 0x0, symName: __ZNSt3__15dequeIP10BinaryNodeNS_9allocatorIS2_EEE7__allocB7v160006Ev, symObjAddr: 0xE8C, symBinAddr: 0x100002C5C, symSize: 0x28 }
  - { offsetInCU: 0xC777, offset: 0xC777, size: 0x8, addend: 0x0, symName: __ZNSt3__114__split_bufferIPP10BinaryNodeNS_9allocatorIS3_EEED1Ev, symObjAddr: 0xEB4, symBinAddr: 0x100002C84, symSize: 0x2C }
  - { offsetInCU: 0xC7A3, offset: 0xC7A3, size: 0x8, addend: 0x0, symName: __ZNSt3__15dequeIP10BinaryNodeNS_9allocatorIS2_EEE5beginB7v160006Ev, symObjAddr: 0xEE0, symBinAddr: 0x100002CB0, symSize: 0xB8 }
  - { offsetInCU: 0xC7D8, offset: 0xC7D8, size: 0x8, addend: 0x0, symName: __ZNSt3__15dequeIP10BinaryNodeNS_9allocatorIS2_EEE3endB7v160006Ev, symObjAddr: 0xF98, symBinAddr: 0x100002D68, symSize: 0xBC }
  - { offsetInCU: 0xC81C, offset: 0xC81C, size: 0x8, addend: 0x0, symName: __ZNSt3__116allocator_traitsINS_9allocatorIP10BinaryNodeEEE7destroyB7v160006IS3_vEEvRS4_PT_, symObjAddr: 0x1094, symBinAddr: 0x100002E64, symSize: 0x2C }
  - { offsetInCU: 0xC859, offset: 0xC859, size: 0x8, addend: 0x0, symName: __ZNKSt3__116__deque_iteratorIP10BinaryNodePS2_RS2_PS3_lLl512EEdeB7v160006Ev, symObjAddr: 0x10C0, symBinAddr: 0x100002E90, symSize: 0x18 }
  - { offsetInCU: 0xC87F, offset: 0xC87F, size: 0x8, addend: 0x0, symName: __ZNSt3__116__deque_iteratorIP10BinaryNodePS2_RS2_PS3_lLl512EEppB7v160006Ev, symObjAddr: 0x10D8, symBinAddr: 0x100002EA8, symSize: 0x70 }
  - { offsetInCU: 0xC8A5, offset: 0xC8A5, size: 0x8, addend: 0x0, symName: __ZNSt3__15dequeIP10BinaryNodeNS_9allocatorIS2_EEE6__sizeB7v160006Ev, symObjAddr: 0x1148, symBinAddr: 0x100002F18, symSize: 0x28 }
  - { offsetInCU: 0xC8CB, offset: 0xC8CB, size: 0x8, addend: 0x0, symName: __ZNKSt3__114__split_bufferIPP10BinaryNodeNS_9allocatorIS3_EEE4sizeB7v160006Ev, symObjAddr: 0x1170, symBinAddr: 0x100002F40, symSize: 0x28 }
  - { offsetInCU: 0xC8F1, offset: 0xC8F1, size: 0x8, addend: 0x0, symName: __ZNSt3__114__split_bufferIPP10BinaryNodeNS_9allocatorIS3_EEE5frontB7v160006Ev, symObjAddr: 0x1198, symBinAddr: 0x100002F68, symSize: 0x18 }
  - { offsetInCU: 0xC917, offset: 0xC917, size: 0x8, addend: 0x0, symName: __ZNSt3__114__split_bufferIPP10BinaryNodeNS_9allocatorIS3_EEE9pop_frontB7v160006Ev, symObjAddr: 0x11B0, symBinAddr: 0x100002F80, symSize: 0x2C }
  - { offsetInCU: 0xC93D, offset: 0xC93D, size: 0x8, addend: 0x0, symName: __ZNKSt3__114__split_bufferIPP10BinaryNodeNS_9allocatorIS3_EEE5emptyB7v160006Ev, symObjAddr: 0x11DC, symBinAddr: 0x100002FAC, symSize: 0x28 }
  - { offsetInCU: 0xC963, offset: 0xC963, size: 0x8, addend: 0x0, symName: __ZNSt3__116__deque_iteratorIP10BinaryNodePS2_RS2_PS3_lLl512EEC1B7v160006ES5_S3_, symObjAddr: 0x1204, symBinAddr: 0x100002FD4, symSize: 0x3C }
  - { offsetInCU: 0xC9AB, offset: 0xC9AB, size: 0x8, addend: 0x0, symName: __ZNSt3__116__deque_iteratorIP10BinaryNodePS2_RS2_PS3_lLl512EEC2B7v160006ES5_S3_, symObjAddr: 0x1240, symBinAddr: 0x100003010, symSize: 0x2C }
  - { offsetInCU: 0xC9F3, offset: 0xC9F3, size: 0x8, addend: 0x0, symName: __ZNKSt3__15dequeIP10BinaryNodeNS_9allocatorIS2_EEE4sizeB7v160006Ev, symObjAddr: 0x126C, symBinAddr: 0x10000303C, symSize: 0x28 }
  - { offsetInCU: 0xCA19, offset: 0xCA19, size: 0x8, addend: 0x0, symName: __ZNKSt3__15dequeIP10BinaryNodeNS_9allocatorIS2_EEE6__sizeB7v160006Ev, symObjAddr: 0x1294, symBinAddr: 0x100003064, symSize: 0x28 }
  - { offsetInCU: 0xCA3F, offset: 0xCA3F, size: 0x8, addend: 0x0, symName: __ZNKSt3__117__compressed_pairImNS_9allocatorIP10BinaryNodeEEE5firstB7v160006Ev, symObjAddr: 0x12BC, symBinAddr: 0x10000308C, symSize: 0x24 }
  - { offsetInCU: 0xCA65, offset: 0xCA65, size: 0x8, addend: 0x0, symName: __ZNKSt3__122__compressed_pair_elemImLi0ELb0EE5__getB7v160006Ev, symObjAddr: 0x12E0, symBinAddr: 0x1000030B0, symSize: 0x14 }
  - { offsetInCU: 0xCA8B, offset: 0xCA8B, size: 0x8, addend: 0x0, symName: __ZNSt3__19allocatorIP10BinaryNodeE7destroyB7v160006EPS2_, symObjAddr: 0x1324, symBinAddr: 0x1000030F4, symSize: 0x14 }
  - { offsetInCU: 0xCABF, offset: 0xCABF, size: 0x8, addend: 0x0, symName: __ZNSt3__117__compressed_pairImNS_9allocatorIP10BinaryNodeEEE5firstB7v160006Ev, symObjAddr: 0x1338, symBinAddr: 0x100003108, symSize: 0x24 }
  - { offsetInCU: 0xCAE5, offset: 0xCAE5, size: 0x8, addend: 0x0, symName: __ZNSt3__122__compressed_pair_elemImLi0ELb0EE5__getB7v160006Ev, symObjAddr: 0x135C, symBinAddr: 0x10000312C, symSize: 0x14 }
  - { offsetInCU: 0xCB0B, offset: 0xCB0B, size: 0x8, addend: 0x0, symName: __ZNSt3__114__split_bufferIPP10BinaryNodeNS_9allocatorIS3_EEE19__destruct_at_beginB7v160006EPS3_, symObjAddr: 0x1370, symBinAddr: 0x100003140, symSize: 0x2C }
  - { offsetInCU: 0xCB3F, offset: 0xCB3F, size: 0x8, addend: 0x0, symName: __ZNSt3__114__split_bufferIPP10BinaryNodeNS_9allocatorIS3_EEE19__destruct_at_beginEPS3_NS_17integral_constantIbLb1EEE, symObjAddr: 0x139C, symBinAddr: 0x10000316C, symSize: 0x20 }
  - { offsetInCU: 0xCB7F, offset: 0xCB7F, size: 0x8, addend: 0x0, symName: __ZNSt3__19allocatorIP10BinaryNodeE10deallocateB7v160006EPS2_m, symObjAddr: 0x13BC, symBinAddr: 0x10000318C, symSize: 0x40 }
  - { offsetInCU: 0xCBC1, offset: 0xCBC1, size: 0x8, addend: 0x0, symName: __ZNSt3__117__compressed_pairImNS_9allocatorIP10BinaryNodeEEE6secondB7v160006Ev, symObjAddr: 0x1478, symBinAddr: 0x100003248, symSize: 0x24 }
  - { offsetInCU: 0xCBE7, offset: 0xCBE7, size: 0x8, addend: 0x0, symName: __ZNSt3__122__compressed_pair_elemINS_9allocatorIP10BinaryNodeEELi1ELb1EE5__getB7v160006Ev, symObjAddr: 0x149C, symBinAddr: 0x10000326C, symSize: 0x14 }
  - { offsetInCU: 0xCC0D, offset: 0xCC0D, size: 0x8, addend: 0x0, symName: __ZNSt3__114__split_bufferIPP10BinaryNodeNS_9allocatorIS3_EEED2Ev, symObjAddr: 0x14B0, symBinAddr: 0x100003280, symSize: 0x8C }
  - { offsetInCU: 0xCC39, offset: 0xCC39, size: 0x8, addend: 0x0, symName: __ZNSt3__114__split_bufferIPP10BinaryNodeNS_9allocatorIS3_EEE5clearB7v160006Ev, symObjAddr: 0x153C, symBinAddr: 0x10000330C, symSize: 0x28 }
  - { offsetInCU: 0xCC5F, offset: 0xCC5F, size: 0x8, addend: 0x0, symName: __ZNSt3__116allocator_traitsINS_9allocatorIPP10BinaryNodeEEE10deallocateB7v160006ERS5_PS4_m, symObjAddr: 0x1564, symBinAddr: 0x100003334, symSize: 0x34 }
  - { offsetInCU: 0xCCA1, offset: 0xCCA1, size: 0x8, addend: 0x0, symName: __ZNSt3__114__split_bufferIPP10BinaryNodeNS_9allocatorIS3_EEE7__allocB7v160006Ev, symObjAddr: 0x1598, symBinAddr: 0x100003368, symSize: 0x28 }
  - { offsetInCU: 0xCCC7, offset: 0xCCC7, size: 0x8, addend: 0x0, symName: __ZNKSt3__114__split_bufferIPP10BinaryNodeNS_9allocatorIS3_EEE8capacityB7v160006Ev, symObjAddr: 0x15C0, symBinAddr: 0x100003390, symSize: 0x40 }
  - { offsetInCU: 0xCCED, offset: 0xCCED, size: 0x8, addend: 0x0, symName: __ZNSt3__114__split_bufferIPP10BinaryNodeNS_9allocatorIS3_EEE17__destruct_at_endB7v160006EPS3_, symObjAddr: 0x1600, symBinAddr: 0x1000033D0, symSize: 0x2C }
  - { offsetInCU: 0xCD21, offset: 0xCD21, size: 0x8, addend: 0x0, symName: __ZNSt3__114__split_bufferIPP10BinaryNodeNS_9allocatorIS3_EEE17__destruct_at_endB7v160006EPS3_NS_17integral_constantIbLb0EEE, symObjAddr: 0x162C, symBinAddr: 0x1000033FC, symSize: 0x80 }
  - { offsetInCU: 0xCD61, offset: 0xCD61, size: 0x8, addend: 0x0, symName: __ZNSt3__116allocator_traitsINS_9allocatorIPP10BinaryNodeEEE7destroyB7v160006IS4_vEEvRS5_PT_, symObjAddr: 0x16AC, symBinAddr: 0x10000347C, symSize: 0x2C }
  - { offsetInCU: 0xCD9E, offset: 0xCD9E, size: 0x8, addend: 0x0, symName: __ZNSt3__19allocatorIPP10BinaryNodeE7destroyB7v160006EPS3_, symObjAddr: 0x16EC, symBinAddr: 0x1000034BC, symSize: 0x14 }
  - { offsetInCU: 0xCDD2, offset: 0xCDD2, size: 0x8, addend: 0x0, symName: __ZNSt3__19allocatorIPP10BinaryNodeE10deallocateB7v160006EPS3_m, symObjAddr: 0x1700, symBinAddr: 0x1000034D0, symSize: 0x40 }
  - { offsetInCU: 0xCE14, offset: 0xCE14, size: 0x8, addend: 0x0, symName: __ZNSt3__117__compressed_pairIPPP10BinaryNodeNS_9allocatorIS3_EEE6secondB7v160006Ev, symObjAddr: 0x1740, symBinAddr: 0x100003510, symSize: 0x24 }
  - { offsetInCU: 0xCE3A, offset: 0xCE3A, size: 0x8, addend: 0x0, symName: __ZNSt3__122__compressed_pair_elemINS_9allocatorIPP10BinaryNodeEELi1ELb1EE5__getB7v160006Ev, symObjAddr: 0x1764, symBinAddr: 0x100003534, symSize: 0x14 }
  - { offsetInCU: 0xCE60, offset: 0xCE60, size: 0x8, addend: 0x0, symName: __ZNKSt3__114__split_bufferIPP10BinaryNodeNS_9allocatorIS3_EEE9__end_capB7v160006Ev, symObjAddr: 0x1778, symBinAddr: 0x100003548, symSize: 0x28 }
  - { offsetInCU: 0xCE86, offset: 0xCE86, size: 0x8, addend: 0x0, symName: __ZNKSt3__117__compressed_pairIPPP10BinaryNodeNS_9allocatorIS3_EEE5firstB7v160006Ev, symObjAddr: 0x17A0, symBinAddr: 0x100003570, symSize: 0x24 }
  - { offsetInCU: 0xCEAC, offset: 0xCEAC, size: 0x8, addend: 0x0, symName: __ZNKSt3__122__compressed_pair_elemIPPP10BinaryNodeLi0ELb0EE5__getB7v160006Ev, symObjAddr: 0x17C4, symBinAddr: 0x100003594, symSize: 0x14 }
  - { offsetInCU: 0xCED2, offset: 0xCED2, size: 0x8, addend: 0x0, symName: __ZN10BinaryTreeC2Ev, symObjAddr: 0x17D8, symBinAddr: 0x1000035A8, symSize: 0x18 }
  - { offsetInCU: 0xCEFC, offset: 0xCEFC, size: 0x8, addend: 0x0, symName: __ZN10BinaryTree7isEmptyEv, symObjAddr: 0x17F0, symBinAddr: 0x1000035C0, symSize: 0x24 }
  - { offsetInCU: 0xCF22, offset: 0xCF22, size: 0x8, addend: 0x0, symName: __ZN10BinaryNodeC1EiPS_S0_, symObjAddr: 0x1814, symBinAddr: 0x1000035E4, symSize: 0x44 }
  - { offsetInCU: 0xCF76, offset: 0xCF76, size: 0x8, addend: 0x0, symName: __ZN10BinaryNode7setLeftEPS_, symObjAddr: 0x1858, symBinAddr: 0x100003628, symSize: 0x20 }
  - { offsetInCU: 0xCFAA, offset: 0xCFAA, size: 0x8, addend: 0x0, symName: __ZN10BinaryNode8setRightEPS_, symObjAddr: 0x1878, symBinAddr: 0x100003648, symSize: 0x20 }
  - { offsetInCU: 0xCFDE, offset: 0xCFDE, size: 0x8, addend: 0x0, symName: __ZN10BinaryNodeC2EiPS_S0_, symObjAddr: 0x1898, symBinAddr: 0x100003668, symSize: 0x38 }
  - { offsetInCU: 0xD032, offset: 0xD032, size: 0x8, addend: 0x0, symName: __ZNSt3__111char_traitsIcE6lengthEPKc, symObjAddr: 0x1ABC, symBinAddr: 0x10000388C, symSize: 0x34 }
  - { offsetInCU: 0xD073, offset: 0xD073, size: 0x8, addend: 0x0, symName: __ZNKSt3__113basic_ostreamIcNS_11char_traitsIcEEE6sentrycvbB7v160006Ev, symObjAddr: 0x1AF0, symBinAddr: 0x1000038C0, symSize: 0x1C }
  - { offsetInCU: 0xD099, offset: 0xD099, size: 0x8, addend: 0x0, symName: __ZNSt3__119ostreambuf_iteratorIcNS_11char_traitsIcEEEC1B7v160006ERNS_13basic_ostreamIcS2_EE, symObjAddr: 0x1D4C, symBinAddr: 0x100003B1C, symSize: 0x34 }
  - { offsetInCU: 0xD0D1, offset: 0xD0D1, size: 0x8, addend: 0x0, symName: __ZNKSt3__18ios_base5flagsB7v160006Ev, symObjAddr: 0x1D80, symBinAddr: 0x100003B50, symSize: 0x18 }
  - { offsetInCU: 0xD0F9, offset: 0xD0F9, size: 0x8, addend: 0x0, symName: __ZNKSt3__19basic_iosIcNS_11char_traitsIcEEE4fillB7v160006Ev, symObjAddr: 0x1D98, symBinAddr: 0x100003B68, symSize: 0x64 }
  - { offsetInCU: 0xD121, offset: 0xD121, size: 0x8, addend: 0x0, symName: __ZNKSt3__119ostreambuf_iteratorIcNS_11char_traitsIcEEE6failedB7v160006Ev, symObjAddr: 0x1DFC, symBinAddr: 0x100003BCC, symSize: 0x24 }
  - { offsetInCU: 0xD147, offset: 0xD147, size: 0x8, addend: 0x0, symName: __ZNSt3__19basic_iosIcNS_11char_traitsIcEEE8setstateB7v160006Ej, symObjAddr: 0x1E20, symBinAddr: 0x100003BF0, symSize: 0x2C }
  - { offsetInCU: 0xD17C, offset: 0xD17C, size: 0x8, addend: 0x0, symName: __ZNKSt3__18ios_base5widthB7v160006Ev, symObjAddr: 0x1E4C, symBinAddr: 0x100003C1C, symSize: 0x18 }
  - { offsetInCU: 0xD1A4, offset: 0xD1A4, size: 0x8, addend: 0x0, symName: __ZNSt3__115basic_streambufIcNS_11char_traitsIcEEE5sputnB7v160006EPKcl, symObjAddr: 0x1E64, symBinAddr: 0x100003C34, symSize: 0x3C }
  - { offsetInCU: 0xD1E6, offset: 0xD1E6, size: 0x8, addend: 0x0, symName: __ZNSt3__112basic_stringIcNS_11char_traitsIcEENS_9allocatorIcEEEC1B7v160006Emc, symObjAddr: 0x1EA0, symBinAddr: 0x100003C70, symSize: 0x3C }
  - { offsetInCU: 0xD22E, offset: 0xD22E, size: 0x8, addend: 0x0, symName: __ZNKSt3__112basic_stringIcNS_11char_traitsIcEENS_9allocatorIcEEE4dataB7v160006Ev, symObjAddr: 0x1EDC, symBinAddr: 0x100003CAC, symSize: 0x28 }
  - { offsetInCU: 0xD254, offset: 0xD254, size: 0x8, addend: 0x0, symName: __ZNSt3__18ios_base5widthB7v160006El, symObjAddr: 0x1F04, symBinAddr: 0x100003CD4, symSize: 0x2C }
  - { offsetInCU: 0xD29A, offset: 0xD29A, size: 0x8, addend: 0x0, symName: __ZNSt3__112basic_stringIcNS_11char_traitsIcEENS_9allocatorIcEEEC2B7v160006Emc, symObjAddr: 0x1F30, symBinAddr: 0x100003D00, symSize: 0x54 }
  - { offsetInCU: 0xD2E7, offset: 0xD2E7, size: 0x8, addend: 0x0, symName: __ZNSt3__117__compressed_pairINS_12basic_stringIcNS_11char_traitsIcEENS_9allocatorIcEEE5__repES5_EC1B7v160006INS_18__default_init_tagESA_EEOT_OT0_, symObjAddr: 0x1F84, symBinAddr: 0x100003D54, symSize: 0x3C }
  - { offsetInCU: 0xD33F, offset: 0xD33F, size: 0x8, addend: 0x0, symName: __ZNSt3__117__compressed_pairINS_12basic_stringIcNS_11char_traitsIcEENS_9allocatorIcEEE5__repES5_EC2B7v160006INS_18__default_init_tagESA_EEOT_OT0_, symObjAddr: 0x1FD0, symBinAddr: 0x100003DA0, symSize: 0x3C }
  - { offsetInCU: 0xD397, offset: 0xD397, size: 0x8, addend: 0x0, symName: __ZNSt3__122__compressed_pair_elemINS_12basic_stringIcNS_11char_traitsIcEENS_9allocatorIcEEE5__repELi0ELb0EEC2B7v160006ENS_18__default_init_tagE, symObjAddr: 0x200C, symBinAddr: 0x100003DDC, symSize: 0x14 }
  - { offsetInCU: 0xD3CB, offset: 0xD3CB, size: 0x8, addend: 0x0, symName: __ZNSt3__122__compressed_pair_elemINS_9allocatorIcEELi1ELb1EEC2B7v160006ENS_18__default_init_tagE, symObjAddr: 0x2020, symBinAddr: 0x100003DF0, symSize: 0x2C }
  - { offsetInCU: 0xD3FF, offset: 0xD3FF, size: 0x8, addend: 0x0, symName: __ZNSt3__19allocatorIcEC2B7v160006Ev, symObjAddr: 0x204C, symBinAddr: 0x100003E1C, symSize: 0x2C }
  - { offsetInCU: 0xD429, offset: 0xD429, size: 0x8, addend: 0x0, symName: __ZNSt3__116__non_trivial_ifILb1ENS_9allocatorIcEEEC2B7v160006Ev, symObjAddr: 0x2078, symBinAddr: 0x100003E48, symSize: 0x14 }
  - { offsetInCU: 0xD453, offset: 0xD453, size: 0x8, addend: 0x0, symName: __ZNKSt3__112basic_stringIcNS_11char_traitsIcEENS_9allocatorIcEEE13__get_pointerB7v160006Ev, symObjAddr: 0x20A0, symBinAddr: 0x100003E70, symSize: 0x54 }
  - { offsetInCU: 0xD479, offset: 0xD479, size: 0x8, addend: 0x0, symName: __ZNKSt3__112basic_stringIcNS_11char_traitsIcEENS_9allocatorIcEEE9__is_longB7v160006Ev, symObjAddr: 0x20F4, symBinAddr: 0x100003EC4, symSize: 0x38 }
  - { offsetInCU: 0xD49F, offset: 0xD49F, size: 0x8, addend: 0x0, symName: __ZNKSt3__112basic_stringIcNS_11char_traitsIcEENS_9allocatorIcEEE18__get_long_pointerB7v160006Ev, symObjAddr: 0x212C, symBinAddr: 0x100003EFC, symSize: 0x28 }
  - { offsetInCU: 0xD4C5, offset: 0xD4C5, size: 0x8, addend: 0x0, symName: __ZNKSt3__112basic_stringIcNS_11char_traitsIcEENS_9allocatorIcEEE19__get_short_pointerB7v160006Ev, symObjAddr: 0x2154, symBinAddr: 0x100003F24, symSize: 0x28 }
  - { offsetInCU: 0xD4EB, offset: 0xD4EB, size: 0x8, addend: 0x0, symName: __ZNKSt3__117__compressed_pairINS_12basic_stringIcNS_11char_traitsIcEENS_9allocatorIcEEE5__repES5_E5firstB7v160006Ev, symObjAddr: 0x217C, symBinAddr: 0x100003F4C, symSize: 0x24 }
  - { offsetInCU: 0xD511, offset: 0xD511, size: 0x8, addend: 0x0, symName: __ZNKSt3__122__compressed_pair_elemINS_12basic_stringIcNS_11char_traitsIcEENS_9allocatorIcEEE5__repELi0ELb0EE5__getB7v160006Ev, symObjAddr: 0x21A0, symBinAddr: 0x100003F70, symSize: 0x14 }
  - { offsetInCU: 0xD537, offset: 0xD537, size: 0x8, addend: 0x0, symName: __ZNSt3__114pointer_traitsIPKcE10pointer_toB7v160006ERS1_, symObjAddr: 0x21B4, symBinAddr: 0x100003F84, symSize: 0x14 }
  - { offsetInCU: 0xD55A, offset: 0xD55A, size: 0x8, addend: 0x0, symName: __ZNSt3__119ostreambuf_iteratorIcNS_11char_traitsIcEEEC2B7v160006ERNS_13basic_ostreamIcS2_EE, symObjAddr: 0x21C8, symBinAddr: 0x100003F98, symSize: 0x54 }
  - { offsetInCU: 0xD592, offset: 0xD592, size: 0x8, addend: 0x0, symName: __ZNKSt3__19basic_iosIcNS_11char_traitsIcEEE5rdbufB7v160006Ev, symObjAddr: 0x221C, symBinAddr: 0x100003FEC, symSize: 0x24 }
  - { offsetInCU: 0xD5BA, offset: 0xD5BA, size: 0x8, addend: 0x0, symName: __ZNKSt3__18ios_base5rdbufB7v160006Ev, symObjAddr: 0x2240, symBinAddr: 0x100004010, symSize: 0x18 }
  - { offsetInCU: 0xD5E0, offset: 0xD5E0, size: 0x8, addend: 0x0, symName: __ZNSt3__111char_traitsIcE11eq_int_typeEii, symObjAddr: 0x2258, symBinAddr: 0x100004028, symSize: 0x28 }
  - { offsetInCU: 0xD611, offset: 0xD611, size: 0x8, addend: 0x0, symName: __ZNSt3__111char_traitsIcE3eofEv, symObjAddr: 0x2280, symBinAddr: 0x100004050, symSize: 0x8 }
  - { offsetInCU: 0xD625, offset: 0xD625, size: 0x8, addend: 0x0, symName: __ZNKSt3__19basic_iosIcNS_11char_traitsIcEEE5widenB7v160006Ec, symObjAddr: 0x2288, symBinAddr: 0x100004058, symSize: 0x84 }
  - { offsetInCU: 0xD689, offset: 0xD689, size: 0x8, addend: 0x0, symName: __ZNKSt3__15ctypeIcE5widenB7v160006Ec, symObjAddr: 0x2338, symBinAddr: 0x100004108, symSize: 0x38 }
  - { offsetInCU: 0xD6BE, offset: 0xD6BE, size: 0x8, addend: 0x0, symName: __ZNSt3__18ios_base8setstateB7v160006Ej, symObjAddr: 0x2370, symBinAddr: 0x100004140, symSize: 0x34 }
  - { offsetInCU: 0xD6F5, offset: 0xD6F5, size: 0x8, addend: 0x0, symName: __ZNSt3__15queueIP10BinaryNodeNS_5dequeIS2_NS_9allocatorIS2_EEEEEC2B7v160006Ev, symObjAddr: 0x23C8, symBinAddr: 0x100004198, symSize: 0x2C }
  - { offsetInCU: 0xD71F, offset: 0xD71F, size: 0x8, addend: 0x0, symName: __ZNSt3__15dequeIP10BinaryNodeNS_9allocatorIS2_EEEC1B7v160006Ev, symObjAddr: 0x23F4, symBinAddr: 0x1000041C4, symSize: 0x2C }
  - { offsetInCU: 0xD749, offset: 0xD749, size: 0x8, addend: 0x0, symName: __ZNSt3__15dequeIP10BinaryNodeNS_9allocatorIS2_EEEC2B7v160006Ev, symObjAddr: 0x2420, symBinAddr: 0x1000041F0, symSize: 0x50 }
  - { offsetInCU: 0xD773, offset: 0xD773, size: 0x8, addend: 0x0, symName: __ZNSt3__114__split_bufferIPP10BinaryNodeNS_9allocatorIS3_EEEC1Ev, symObjAddr: 0x2470, symBinAddr: 0x100004240, symSize: 0x2C }
  - { offsetInCU: 0xD7A4, offset: 0xD7A4, size: 0x8, addend: 0x0, symName: __ZNSt3__117__compressed_pairImNS_9allocatorIP10BinaryNodeEEEC1B7v160006IiNS_18__default_init_tagEEEOT_OT0_, symObjAddr: 0x249C, symBinAddr: 0x10000426C, symSize: 0x3C }
  - { offsetInCU: 0xD7FC, offset: 0xD7FC, size: 0x8, addend: 0x0, symName: __ZNSt3__114__split_bufferIPP10BinaryNodeNS_9allocatorIS3_EEEC2Ev, symObjAddr: 0x24D8, symBinAddr: 0x1000042A8, symSize: 0x50 }
  - { offsetInCU: 0xD82D, offset: 0xD82D, size: 0x8, addend: 0x0, symName: __ZNSt3__117__compressed_pairIPPP10BinaryNodeNS_9allocatorIS3_EEEC1B7v160006IDnNS_18__default_init_tagEEEOT_OT0_, symObjAddr: 0x2528, symBinAddr: 0x1000042F8, symSize: 0x3C }
  - { offsetInCU: 0xD885, offset: 0xD885, size: 0x8, addend: 0x0, symName: __ZNSt3__117__compressed_pairIPPP10BinaryNodeNS_9allocatorIS3_EEEC2B7v160006IDnNS_18__default_init_tagEEEOT_OT0_, symObjAddr: 0x2564, symBinAddr: 0x100004334, symSize: 0x40 }
  - { offsetInCU: 0xD8DD, offset: 0xD8DD, size: 0x8, addend: 0x0, symName: __ZNSt3__122__compressed_pair_elemIPPP10BinaryNodeLi0ELb0EEC2B7v160006IDnvEEOT_, symObjAddr: 0x25A4, symBinAddr: 0x100004374, symSize: 0x1C }
  - { offsetInCU: 0xD91F, offset: 0xD91F, size: 0x8, addend: 0x0, symName: __ZNSt3__122__compressed_pair_elemINS_9allocatorIPP10BinaryNodeEELi1ELb1EEC2B7v160006ENS_18__default_init_tagE, symObjAddr: 0x25C0, symBinAddr: 0x100004390, symSize: 0x2C }
  - { offsetInCU: 0xD953, offset: 0xD953, size: 0x8, addend: 0x0, symName: __ZNSt3__19allocatorIPP10BinaryNodeEC2B7v160006Ev, symObjAddr: 0x25EC, symBinAddr: 0x1000043BC, symSize: 0x2C }
  - { offsetInCU: 0xD97D, offset: 0xD97D, size: 0x8, addend: 0x0, symName: __ZNSt3__116__non_trivial_ifILb1ENS_9allocatorIPP10BinaryNodeEEEC2B7v160006Ev, symObjAddr: 0x2618, symBinAddr: 0x1000043E8, symSize: 0x14 }
  - { offsetInCU: 0xD9A7, offset: 0xD9A7, size: 0x8, addend: 0x0, symName: __ZNSt3__117__compressed_pairImNS_9allocatorIP10BinaryNodeEEEC2B7v160006IiNS_18__default_init_tagEEEOT_OT0_, symObjAddr: 0x262C, symBinAddr: 0x1000043FC, symSize: 0x40 }
  - { offsetInCU: 0xD9FF, offset: 0xD9FF, size: 0x8, addend: 0x0, symName: __ZNSt3__122__compressed_pair_elemImLi0ELb0EEC2B7v160006IivEEOT_, symObjAddr: 0x266C, symBinAddr: 0x10000443C, symSize: 0x24 }
  - { offsetInCU: 0xDA41, offset: 0xDA41, size: 0x8, addend: 0x0, symName: __ZNSt3__122__compressed_pair_elemINS_9allocatorIP10BinaryNodeEELi1ELb1EEC2B7v160006ENS_18__default_init_tagE, symObjAddr: 0x2690, symBinAddr: 0x100004460, symSize: 0x2C }
  - { offsetInCU: 0xDA75, offset: 0xDA75, size: 0x8, addend: 0x0, symName: __ZNSt3__19allocatorIP10BinaryNodeEC2B7v160006Ev, symObjAddr: 0x26BC, symBinAddr: 0x10000448C, symSize: 0x2C }
  - { offsetInCU: 0xDA9F, offset: 0xDA9F, size: 0x8, addend: 0x0, symName: __ZNSt3__116__non_trivial_ifILb1ENS_9allocatorIP10BinaryNodeEEEC2B7v160006Ev, symObjAddr: 0x26E8, symBinAddr: 0x1000044B8, symSize: 0x14 }
  - { offsetInCU: 0xDAC9, offset: 0xDAC9, size: 0x8, addend: 0x0, symName: __ZNSt3__15dequeIP10BinaryNodeNS_9allocatorIS2_EEE9push_backEOS2_, symObjAddr: 0x26FC, symBinAddr: 0x1000044CC, symSize: 0xA0 }
  - { offsetInCU: 0xDB0F, offset: 0xDB0F, size: 0x8, addend: 0x0, symName: __ZNKSt3__15dequeIP10BinaryNodeNS_9allocatorIS2_EEE12__back_spareB7v160006Ev, symObjAddr: 0x279C, symBinAddr: 0x10000456C, symSize: 0x54 }
  - { offsetInCU: 0xDB35, offset: 0xDB35, size: 0x8, addend: 0x0, symName: __ZNSt3__15dequeIP10BinaryNodeNS_9allocatorIS2_EEE19__add_back_capacityEv, symObjAddr: 0x27F0, symBinAddr: 0x1000045C0, symSize: 0x314 }
  - { offsetInCU: 0xDBF2, offset: 0xDBF2, size: 0x8, addend: 0x0, symName: __ZNSt3__116allocator_traitsINS_9allocatorIP10BinaryNodeEEE9constructB7v160006IS3_JS3_EvEEvRS4_PT_DpOT0_, symObjAddr: 0x2B04, symBinAddr: 0x1000048D4, symSize: 0x34 }
  - { offsetInCU: 0xDC49, offset: 0xDC49, size: 0x8, addend: 0x0, symName: __ZNKSt3__15dequeIP10BinaryNodeNS_9allocatorIS2_EEE10__capacityB7v160006Ev, symObjAddr: 0x2B38, symBinAddr: 0x100004908, symSize: 0x60 }
  - { offsetInCU: 0xDC6F, offset: 0xDC6F, size: 0x8, addend: 0x0, symName: __ZNKSt3__15dequeIP10BinaryNodeNS_9allocatorIS2_EEE13__front_spareB7v160006Ev, symObjAddr: 0x2B98, symBinAddr: 0x100004968, symSize: 0x18 }
  - { offsetInCU: 0xDC95, offset: 0xDC95, size: 0x8, addend: 0x0, symName: __ZNSt3__114__split_bufferIPP10BinaryNodeNS_9allocatorIS3_EEE9push_backB7v160006ERKS3_, symObjAddr: 0x2BB0, symBinAddr: 0x100004980, symSize: 0x260 }
  - { offsetInCU: 0xDD0E, offset: 0xDD0E, size: 0x8, addend: 0x0, symName: __ZNKSt3__114__split_bufferIPP10BinaryNodeNS_9allocatorIS3_EEE12__back_spareB7v160006Ev, symObjAddr: 0x2E10, symBinAddr: 0x100004BE0, symSize: 0x40 }
  - { offsetInCU: 0xDD34, offset: 0xDD34, size: 0x8, addend: 0x0, symName: __ZNSt3__114__split_bufferIPP10BinaryNodeNS_9allocatorIS3_EEE9push_backEOS3_, symObjAddr: 0x2E50, symBinAddr: 0x100004C20, symSize: 0x260 }
  - { offsetInCU: 0xDDAD, offset: 0xDDAD, size: 0x8, addend: 0x0, symName: __ZNSt3__116allocator_traitsINS_9allocatorIP10BinaryNodeEEE8allocateB7v160006ERS4_m, symObjAddr: 0x30B0, symBinAddr: 0x100004E80, symSize: 0x2C }
  - { offsetInCU: 0xDDE0, offset: 0xDDE0, size: 0x8, addend: 0x0, symName: __ZNSt3__114__split_bufferIPP10BinaryNodeNS_9allocatorIS3_EEE10push_frontEOS3_, symObjAddr: 0x30DC, symBinAddr: 0x100004EAC, symSize: 0x25C }
  - { offsetInCU: 0xDE59, offset: 0xDE59, size: 0x8, addend: 0x0, symName: __ZNSt3__114__split_bufferIPP10BinaryNodeRNS_9allocatorIS3_EEEC1EmmS6_, symObjAddr: 0x3364, symBinAddr: 0x100005134, symSize: 0x44 }
  - { offsetInCU: 0xDEB4, offset: 0xDEB4, size: 0x8, addend: 0x0, symName: __ZNSt3__122__allocator_destructorINS_9allocatorIP10BinaryNodeEEEC1B7v160006ERS4_m, symObjAddr: 0x33A8, symBinAddr: 0x100005178, symSize: 0x3C }
  - { offsetInCU: 0xDF77, offset: 0xDF77, size: 0x8, addend: 0x0, symName: __ZNSt3__110unique_ptrIPP10BinaryNodeNS_22__allocator_destructorINS_9allocatorIS2_EEEEEC1B7v160006ILb1EvEES3_NS_16__dependent_typeINS_27__unique_ptr_deleter_sfinaeIS7_EEXT_EE20__good_rval_ref_typeE, symObjAddr: 0x33E4, symBinAddr: 0x1000051B4, symSize: 0x3C }
  - { offsetInCU: 0xDFC8, offset: 0xDFC8, size: 0x8, addend: 0x0, symName: __ZNSt3__114__split_bufferIPP10BinaryNodeRNS_9allocatorIS3_EEE9push_backEOS3_, symObjAddr: 0x3420, symBinAddr: 0x1000051F0, symSize: 0x260 }
  - { offsetInCU: 0xE041, offset: 0xE041, size: 0x8, addend: 0x0, symName: __ZNKSt3__110unique_ptrIPP10BinaryNodeNS_22__allocator_destructorINS_9allocatorIS2_EEEEE3getB7v160006Ev, symObjAddr: 0x3680, symBinAddr: 0x100005450, symSize: 0x28 }
  - { offsetInCU: 0xE067, offset: 0xE067, size: 0x8, addend: 0x0, symName: __ZNSt3__110unique_ptrIPP10BinaryNodeNS_22__allocator_destructorINS_9allocatorIS2_EEEEE7releaseB7v160006Ev, symObjAddr: 0x36A8, symBinAddr: 0x100005478, symSize: 0x44 }
  - { offsetInCU: 0xE09C, offset: 0xE09C, size: 0x8, addend: 0x0, symName: __ZNSt3__114__split_bufferIPP10BinaryNodeRNS_9allocatorIS3_EEE10push_frontERKS3_, symObjAddr: 0x36EC, symBinAddr: 0x1000054BC, symSize: 0x25C }
  - { offsetInCU: 0xE115, offset: 0xE115, size: 0x8, addend: 0x0, symName: __ZNSt3__114__split_bufferIPP10BinaryNodeNS_9allocatorIS3_EEE9__end_capB7v160006Ev, symObjAddr: 0x3984, symBinAddr: 0x100005754, symSize: 0x28 }
  - { offsetInCU: 0xE13B, offset: 0xE13B, size: 0x8, addend: 0x0, symName: __ZNSt3__114__split_bufferIPP10BinaryNodeRNS_9allocatorIS3_EEE9__end_capB7v160006Ev, symObjAddr: 0x39AC, symBinAddr: 0x10000577C, symSize: 0x28 }
  - { offsetInCU: 0xE161, offset: 0xE161, size: 0x8, addend: 0x0, symName: __ZNSt3__110unique_ptrIPP10BinaryNodeNS_22__allocator_destructorINS_9allocatorIS2_EEEEED1B7v160006Ev, symObjAddr: 0x39D4, symBinAddr: 0x1000057A4, symSize: 0x2C }
  - { offsetInCU: 0xE18B, offset: 0xE18B, size: 0x8, addend: 0x0, symName: __ZNSt3__114__split_bufferIPP10BinaryNodeRNS_9allocatorIS3_EEED1Ev, symObjAddr: 0x3A00, symBinAddr: 0x1000057D0, symSize: 0x2C }
  - { offsetInCU: 0xE1B7, offset: 0xE1B7, size: 0x8, addend: 0x0, symName: __ZNSt3__114__split_bufferIPP10BinaryNodeRNS_9allocatorIS3_EEE18__construct_at_endINS_13move_iteratorIPS3_EEEENS_9enable_ifIXsr27__is_cpp17_forward_iteratorIT_EE5valueEvE4typeESD_SD_, symObjAddr: 0x3A6C, symBinAddr: 0x10000583C, symSize: 0xFC }
  - { offsetInCU: 0xE213, offset: 0xE213, size: 0x8, addend: 0x0, symName: __ZNSt3__113move_iteratorIPPP10BinaryNodeEC1B7v160006ES4_, symObjAddr: 0x3B68, symBinAddr: 0x100005938, symSize: 0x34 }
  - { offsetInCU: 0xE24B, offset: 0xE24B, size: 0x8, addend: 0x0, symName: __ZNSt3__116allocator_traitsINS_9allocatorIPP10BinaryNodeEEE9constructB7v160006IS4_JRKS4_EvEEvRS5_PT_DpOT0_, symObjAddr: 0x3B9C, symBinAddr: 0x10000596C, symSize: 0x34 }
  - { offsetInCU: 0xE2C5, offset: 0xE2C5, size: 0x8, addend: 0x0, symName: __ZNKSt3__114__move_trivialclB7v160006IPP10BinaryNodeS4_Li0EEENS_4pairIPT_PT0_EES7_S7_S9_, symObjAddr: 0x3D6C, symBinAddr: 0x100005B3C, symSize: 0x48 }
  - { offsetInCU: 0xE332, offset: 0xE332, size: 0x8, addend: 0x0, symName: __ZNSt3__14pairIPPP10BinaryNodeS4_EC1B7v160006IRS4_S4_LPv0EEEOT_OT0_, symObjAddr: 0x3F34, symBinAddr: 0x100005D04, symSize: 0x3C }
  - { offsetInCU: 0xE390, offset: 0xE390, size: 0x8, addend: 0x0, symName: __ZNSt3__14pairIPPP10BinaryNodeS4_EC2B7v160006IRS4_S4_LPv0EEEOT_OT0_, symObjAddr: 0x3F70, symBinAddr: 0x100005D40, symSize: 0x34 }
  - { offsetInCU: 0xE3EE, offset: 0xE3EE, size: 0x8, addend: 0x0, symName: __ZNSt3__118__unwrap_iter_implIPPP10BinaryNodeLb1EE8__unwrapB7v160006ES4_, symObjAddr: 0x3FA4, symBinAddr: 0x100005D74, symSize: 0x24 }
  - { offsetInCU: 0xE411, offset: 0xE411, size: 0x8, addend: 0x0, symName: __ZNSt3__14pairIPPP10BinaryNodeS4_EC1B7v160006IS4_S4_LPv0EEEOT_OT0_, symObjAddr: 0x3FC8, symBinAddr: 0x100005D98, symSize: 0x3C }
  - { offsetInCU: 0xE46F, offset: 0xE46F, size: 0x8, addend: 0x0, symName: __ZNSt3__14pairIPPP10BinaryNodeS4_EC2B7v160006IS4_S4_LPv0EEEOT_OT0_, symObjAddr: 0x4004, symBinAddr: 0x100005DD4, symSize: 0x34 }
  - { offsetInCU: 0xE4CD, offset: 0xE4CD, size: 0x8, addend: 0x0, symName: __ZNSt3__118__unwrap_iter_implIPPP10BinaryNodeLb1EE8__rewrapB7v160006ES4_S4_, symObjAddr: 0x4038, symBinAddr: 0x100005E08, symSize: 0x50 }
  - { offsetInCU: 0xE508, offset: 0xE508, size: 0x8, addend: 0x0, symName: __ZNSt3__114__split_bufferIPP10BinaryNodeRNS_9allocatorIS3_EEE21_ConstructTransactionC1B7v160006EPPS3_m, symObjAddr: 0x40C4, symBinAddr: 0x100005E94, symSize: 0x3C }
  - { offsetInCU: 0xE54E, offset: 0xE54E, size: 0x8, addend: 0x0, symName: __ZNSt3__116allocator_traitsINS_9allocatorIPP10BinaryNodeEEE9constructB7v160006IS4_JS4_EvEEvRS5_PT_DpOT0_, symObjAddr: 0x4100, symBinAddr: 0x100005ED0, symSize: 0x34 }
  - { offsetInCU: 0xE5A5, offset: 0xE5A5, size: 0x8, addend: 0x0, symName: __ZNSt3__114__split_bufferIPP10BinaryNodeRNS_9allocatorIS3_EEE7__allocB7v160006Ev, symObjAddr: 0x4134, symBinAddr: 0x100005F04, symSize: 0x28 }
  - { offsetInCU: 0xE5CB, offset: 0xE5CB, size: 0x8, addend: 0x0, symName: __ZNKSt3__113move_iteratorIPPP10BinaryNodeEdeB7v160006Ev, symObjAddr: 0x415C, symBinAddr: 0x100005F2C, symSize: 0x18 }
  - { offsetInCU: 0xE5F1, offset: 0xE5F1, size: 0x8, addend: 0x0, symName: __ZNSt3__113move_iteratorIPPP10BinaryNodeEppB7v160006Ev, symObjAddr: 0x4174, symBinAddr: 0x100005F44, symSize: 0x20 }
  - { offsetInCU: 0xE617, offset: 0xE617, size: 0x8, addend: 0x0, symName: __ZNSt3__114__split_bufferIPP10BinaryNodeRNS_9allocatorIS3_EEE21_ConstructTransactionD1B7v160006Ev, symObjAddr: 0x4194, symBinAddr: 0x100005F64, symSize: 0x2C }
  - { offsetInCU: 0xE641, offset: 0xE641, size: 0x8, addend: 0x0, symName: __ZNKSt3__113move_iteratorIPPP10BinaryNodeE4baseB7v160006Ev, symObjAddr: 0x4238, symBinAddr: 0x100006008, symSize: 0x18 }
  - { offsetInCU: 0xE667, offset: 0xE667, size: 0x8, addend: 0x0, symName: __ZNSt3__114__split_bufferIPP10BinaryNodeRNS_9allocatorIS3_EEE21_ConstructTransactionC2B7v160006EPPS3_m, symObjAddr: 0x4250, symBinAddr: 0x100006020, symSize: 0x44 }
  - { offsetInCU: 0xE6AD, offset: 0xE6AD, size: 0x8, addend: 0x0, symName: __ZNSt3__19allocatorIPP10BinaryNodeE9constructB7v160006IS3_JS3_EEEvPT_DpOT0_, symObjAddr: 0x4294, symBinAddr: 0x100006064, symSize: 0x28 }
  - { offsetInCU: 0xE703, offset: 0xE703, size: 0x8, addend: 0x0, symName: __ZNSt3__117__compressed_pairIPPP10BinaryNodeRNS_9allocatorIS3_EEE6secondB7v160006Ev, symObjAddr: 0x42BC, symBinAddr: 0x10000608C, symSize: 0x28 }
  - { offsetInCU: 0xE729, offset: 0xE729, size: 0x8, addend: 0x0, symName: __ZNSt3__122__compressed_pair_elemIRNS_9allocatorIPP10BinaryNodeEELi1ELb0EE5__getB7v160006Ev, symObjAddr: 0x42E4, symBinAddr: 0x1000060B4, symSize: 0x18 }
  - { offsetInCU: 0xE74F, offset: 0xE74F, size: 0x8, addend: 0x0, symName: __ZNSt3__114__split_bufferIPP10BinaryNodeRNS_9allocatorIS3_EEE21_ConstructTransactionD2B7v160006Ev, symObjAddr: 0x42FC, symBinAddr: 0x1000060CC, symSize: 0x20 }
  - { offsetInCU: 0xE779, offset: 0xE779, size: 0x8, addend: 0x0, symName: __ZNSt3__113move_iteratorIPPP10BinaryNodeEC2B7v160006ES4_, symObjAddr: 0x431C, symBinAddr: 0x1000060EC, symSize: 0x20 }
  - { offsetInCU: 0xE7B1, offset: 0xE7B1, size: 0x8, addend: 0x0, symName: __ZNSt3__19allocatorIPP10BinaryNodeE9constructB7v160006IS3_JRKS3_EEEvPT_DpOT0_, symObjAddr: 0x433C, symBinAddr: 0x10000610C, symSize: 0x28 }
  - { offsetInCU: 0xE807, offset: 0xE807, size: 0x8, addend: 0x0, symName: __ZNSt3__19allocatorIP10BinaryNodeE8allocateB7v160006Em, symObjAddr: 0x4364, symBinAddr: 0x100006134, symSize: 0x58 }
  - { offsetInCU: 0xE845, offset: 0xE845, size: 0x8, addend: 0x0, symName: __ZNSt3__116allocator_traitsINS_9allocatorIP10BinaryNodeEEE8max_sizeB7v160006IS4_vEEmRKS4_, symObjAddr: 0x43BC, symBinAddr: 0x10000618C, symSize: 0x24 }
  - { offsetInCU: 0xE873, offset: 0xE873, size: 0x8, addend: 0x0, symName: __ZNKSt3__19allocatorIP10BinaryNodeE8max_sizeB7v160006Ev, symObjAddr: 0x443C, symBinAddr: 0x10000620C, symSize: 0x14 }
  - { offsetInCU: 0xE8A3, offset: 0xE8A3, size: 0x8, addend: 0x0, symName: __ZNKSt3__123__move_backward_trivialclB7v160006IPP10BinaryNodeS4_Li0EEENS_4pairIPT_PT0_EES7_S7_S9_, symObjAddr: 0x45F0, symBinAddr: 0x1000063C0, symSize: 0x48 }
  - { offsetInCU: 0xE90B, offset: 0xE90B, size: 0x8, addend: 0x0, symName: __ZNSt3__14pairIPPP10BinaryNodeS4_EC1B7v160006IRS4_S7_LPv0EEEOT_OT0_, symObjAddr: 0x4704, symBinAddr: 0x1000064D4, symSize: 0x3C }
  - { offsetInCU: 0xE969, offset: 0xE969, size: 0x8, addend: 0x0, symName: __ZNSt3__14pairIPPP10BinaryNodeS4_EC2B7v160006IRS4_S7_LPv0EEEOT_OT0_, symObjAddr: 0x4740, symBinAddr: 0x100006510, symSize: 0x34 }
  - { offsetInCU: 0xE9D1, offset: 0xE9D1, size: 0x8, addend: 0x0, symName: __ZNKSt3__16__lessImmEclB7v160006ERKmS3_, symObjAddr: 0x47C8, symBinAddr: 0x100006598, symSize: 0x34 }
  - { offsetInCU: 0xEA13, offset: 0xEA13, size: 0x8, addend: 0x0, symName: __ZNSt3__114__split_bufferIPP10BinaryNodeRNS_9allocatorIS3_EEEC2EmmS6_, symObjAddr: 0x47FC, symBinAddr: 0x1000065CC, symSize: 0xD4 }
  - { offsetInCU: 0xEA87, offset: 0xEA87, size: 0x8, addend: 0x0, symName: __ZNSt3__117__compressed_pairIPPP10BinaryNodeRNS_9allocatorIS3_EEEC1B7v160006IDnS7_EEOT_OT0_, symObjAddr: 0x48D0, symBinAddr: 0x1000066A0, symSize: 0x3C }
  - { offsetInCU: 0xEADF, offset: 0xEADF, size: 0x8, addend: 0x0, symName: __ZNSt3__117__compressed_pairIPPP10BinaryNodeRNS_9allocatorIS3_EEEC2B7v160006IDnS7_EEOT_OT0_, symObjAddr: 0x494C, symBinAddr: 0x10000671C, symSize: 0x48 }
  - { offsetInCU: 0xEB37, offset: 0xEB37, size: 0x8, addend: 0x0, symName: __ZNSt3__122__compressed_pair_elemIRNS_9allocatorIPP10BinaryNodeEELi1ELb0EEC2B7v160006IS6_vEEOT_, symObjAddr: 0x4994, symBinAddr: 0x100006764, symSize: 0x20 }
  - { offsetInCU: 0xEB79, offset: 0xEB79, size: 0x8, addend: 0x0, symName: __ZNSt3__19allocatorIPP10BinaryNodeE8allocateB7v160006Em, symObjAddr: 0x49B4, symBinAddr: 0x100006784, symSize: 0x58 }
  - { offsetInCU: 0xEBB7, offset: 0xEBB7, size: 0x8, addend: 0x0, symName: __ZNSt3__116allocator_traitsINS_9allocatorIPP10BinaryNodeEEE8max_sizeB7v160006IS5_vEEmRKS5_, symObjAddr: 0x4A0C, symBinAddr: 0x1000067DC, symSize: 0x24 }
  - { offsetInCU: 0xEBE5, offset: 0xEBE5, size: 0x8, addend: 0x0, symName: __ZNKSt3__19allocatorIPP10BinaryNodeE8max_sizeB7v160006Ev, symObjAddr: 0x4A30, symBinAddr: 0x100006800, symSize: 0x14 }
  - { offsetInCU: 0xEC0B, offset: 0xEC0B, size: 0x8, addend: 0x0, symName: __ZNSt3__122__allocator_destructorINS_9allocatorIP10BinaryNodeEEEC2B7v160006ERS4_m, symObjAddr: 0x4A44, symBinAddr: 0x100006814, symSize: 0x2C }
  - { offsetInCU: 0xEC51, offset: 0xEC51, size: 0x8, addend: 0x0, symName: __ZNSt3__110unique_ptrIPP10BinaryNodeNS_22__allocator_destructorINS_9allocatorIS2_EEEEEC2B7v160006ILb1EvEES3_NS_16__dependent_typeINS_27__unique_ptr_deleter_sfinaeIS7_EEXT_EE20__good_rval_ref_typeE, symObjAddr: 0x4A70, symBinAddr: 0x100006840, symSize: 0x48 }
  - { offsetInCU: 0xECA2, offset: 0xECA2, size: 0x8, addend: 0x0, symName: __ZNSt3__117__compressed_pairIPP10BinaryNodeNS_22__allocator_destructorINS_9allocatorIS2_EEEEEC1B7v160006IRS3_S7_EEOT_OT0_, symObjAddr: 0x4AB8, symBinAddr: 0x100006888, symSize: 0x3C }
  - { offsetInCU: 0xECFA, offset: 0xECFA, size: 0x8, addend: 0x0, symName: __ZNSt3__117__compressed_pairIPP10BinaryNodeNS_22__allocator_destructorINS_9allocatorIS2_EEEEEC2B7v160006IRS3_S7_EEOT_OT0_, symObjAddr: 0x4AF4, symBinAddr: 0x1000068C4, symSize: 0x48 }
  - { offsetInCU: 0xED52, offset: 0xED52, size: 0x8, addend: 0x0, symName: __ZNSt3__122__compressed_pair_elemIPP10BinaryNodeLi0ELb0EEC2B7v160006IRS3_vEEOT_, symObjAddr: 0x4B3C, symBinAddr: 0x10000690C, symSize: 0x24 }
  - { offsetInCU: 0xED94, offset: 0xED94, size: 0x8, addend: 0x0, symName: __ZNSt3__122__compressed_pair_elemINS_22__allocator_destructorINS_9allocatorIP10BinaryNodeEEEELi1ELb0EEC2B7v160006IS6_vEEOT_, symObjAddr: 0x4B60, symBinAddr: 0x100006930, symSize: 0x24 }
  - { offsetInCU: 0xEDD6, offset: 0xEDD6, size: 0x8, addend: 0x0, symName: __ZNKSt3__117__compressed_pairIPP10BinaryNodeNS_22__allocator_destructorINS_9allocatorIS2_EEEEE5firstB7v160006Ev, symObjAddr: 0x4B84, symBinAddr: 0x100006954, symSize: 0x24 }
  - { offsetInCU: 0xEDFC, offset: 0xEDFC, size: 0x8, addend: 0x0, symName: __ZNKSt3__122__compressed_pair_elemIPP10BinaryNodeLi0ELb0EE5__getB7v160006Ev, symObjAddr: 0x4BA8, symBinAddr: 0x100006978, symSize: 0x14 }
  - { offsetInCU: 0xEE22, offset: 0xEE22, size: 0x8, addend: 0x0, symName: __ZNSt3__117__compressed_pairIPP10BinaryNodeNS_22__allocator_destructorINS_9allocatorIS2_EEEEE5firstB7v160006Ev, symObjAddr: 0x4BBC, symBinAddr: 0x10000698C, symSize: 0x24 }
  - { offsetInCU: 0xEE48, offset: 0xEE48, size: 0x8, addend: 0x0, symName: __ZNSt3__122__compressed_pair_elemIPP10BinaryNodeLi0ELb0EE5__getB7v160006Ev, symObjAddr: 0x4BE0, symBinAddr: 0x1000069B0, symSize: 0x14 }
  - { offsetInCU: 0xEE6E, offset: 0xEE6E, size: 0x8, addend: 0x0, symName: __ZNSt3__117__compressed_pairIPPP10BinaryNodeNS_9allocatorIS3_EEE5firstB7v160006Ev, symObjAddr: 0x4BF4, symBinAddr: 0x1000069C4, symSize: 0x24 }
  - { offsetInCU: 0xEE94, offset: 0xEE94, size: 0x8, addend: 0x0, symName: __ZNSt3__122__compressed_pair_elemIPPP10BinaryNodeLi0ELb0EE5__getB7v160006Ev, symObjAddr: 0x4C18, symBinAddr: 0x1000069E8, symSize: 0x14 }
  - { offsetInCU: 0xEEBA, offset: 0xEEBA, size: 0x8, addend: 0x0, symName: __ZNSt3__117__compressed_pairIPPP10BinaryNodeRNS_9allocatorIS3_EEE5firstB7v160006Ev, symObjAddr: 0x4C2C, symBinAddr: 0x1000069FC, symSize: 0x24 }
  - { offsetInCU: 0xEEE0, offset: 0xEEE0, size: 0x8, addend: 0x0, symName: __ZNSt3__110unique_ptrIPP10BinaryNodeNS_22__allocator_destructorINS_9allocatorIS2_EEEEED2B7v160006Ev, symObjAddr: 0x4C50, symBinAddr: 0x100006A20, symSize: 0x30 }
  - { offsetInCU: 0xEF0A, offset: 0xEF0A, size: 0x8, addend: 0x0, symName: __ZNSt3__110unique_ptrIPP10BinaryNodeNS_22__allocator_destructorINS_9allocatorIS2_EEEEE5resetB7v160006ES3_, symObjAddr: 0x4C80, symBinAddr: 0x100006A50, symSize: 0x78 }
  - { offsetInCU: 0xEF4E, offset: 0xEF4E, size: 0x8, addend: 0x0, symName: __ZNSt3__117__compressed_pairIPP10BinaryNodeNS_22__allocator_destructorINS_9allocatorIS2_EEEEE6secondB7v160006Ev, symObjAddr: 0x4CF8, symBinAddr: 0x100006AC8, symSize: 0x28 }
  - { offsetInCU: 0xEF74, offset: 0xEF74, size: 0x8, addend: 0x0, symName: __ZNSt3__122__allocator_destructorINS_9allocatorIP10BinaryNodeEEEclB7v160006EPS3_, symObjAddr: 0x4D20, symBinAddr: 0x100006AF0, symSize: 0x34 }
  - { offsetInCU: 0xEFA8, offset: 0xEFA8, size: 0x8, addend: 0x0, symName: __ZNSt3__122__compressed_pair_elemINS_22__allocator_destructorINS_9allocatorIP10BinaryNodeEEEELi1ELb0EE5__getB7v160006Ev, symObjAddr: 0x4D54, symBinAddr: 0x100006B24, symSize: 0x14 }
  - { offsetInCU: 0xEFCE, offset: 0xEFCE, size: 0x8, addend: 0x0, symName: __ZNSt3__114__split_bufferIPP10BinaryNodeRNS_9allocatorIS3_EEED2Ev, symObjAddr: 0x4D68, symBinAddr: 0x100006B38, symSize: 0x8C }
  - { offsetInCU: 0xEFFA, offset: 0xEFFA, size: 0x8, addend: 0x0, symName: __ZNSt3__114__split_bufferIPP10BinaryNodeRNS_9allocatorIS3_EEE5clearB7v160006Ev, symObjAddr: 0x4DF4, symBinAddr: 0x100006BC4, symSize: 0x28 }
  - { offsetInCU: 0xF020, offset: 0xF020, size: 0x8, addend: 0x0, symName: __ZNKSt3__114__split_bufferIPP10BinaryNodeRNS_9allocatorIS3_EEE8capacityB7v160006Ev, symObjAddr: 0x4E1C, symBinAddr: 0x100006BEC, symSize: 0x40 }
  - { offsetInCU: 0xF046, offset: 0xF046, size: 0x8, addend: 0x0, symName: __ZNSt3__114__split_bufferIPP10BinaryNodeRNS_9allocatorIS3_EEE17__destruct_at_endB7v160006EPS3_, symObjAddr: 0x4E5C, symBinAddr: 0x100006C2C, symSize: 0x2C }
  - { offsetInCU: 0xF07A, offset: 0xF07A, size: 0x8, addend: 0x0, symName: __ZNSt3__114__split_bufferIPP10BinaryNodeRNS_9allocatorIS3_EEE17__destruct_at_endB7v160006EPS3_NS_17integral_constantIbLb0EEE, symObjAddr: 0x4E88, symBinAddr: 0x100006C58, symSize: 0x80 }
  - { offsetInCU: 0xF0BA, offset: 0xF0BA, size: 0x8, addend: 0x0, symName: __ZNKSt3__114__split_bufferIPP10BinaryNodeRNS_9allocatorIS3_EEE9__end_capB7v160006Ev, symObjAddr: 0x4F08, symBinAddr: 0x100006CD8, symSize: 0x28 }
  - { offsetInCU: 0xF0E0, offset: 0xF0E0, size: 0x8, addend: 0x0, symName: __ZNKSt3__117__compressed_pairIPPP10BinaryNodeRNS_9allocatorIS3_EEE5firstB7v160006Ev, symObjAddr: 0x4F30, symBinAddr: 0x100006D00, symSize: 0x24 }
  - { offsetInCU: 0xF106, offset: 0xF106, size: 0x8, addend: 0x0, symName: __ZNSt3__19allocatorIP10BinaryNodeE9constructB7v160006IS2_JS2_EEEvPT_DpOT0_, symObjAddr: 0x4F54, symBinAddr: 0x100006D24, symSize: 0x28 }
  - { offsetInCU: 0xF15C, offset: 0xF15C, size: 0x8, addend: 0x0, symName: __ZNKSt3__15dequeIP10BinaryNodeNS_9allocatorIS2_EEE5emptyB7v160006Ev, symObjAddr: 0x4F7C, symBinAddr: 0x100006D4C, symSize: 0x30 }
  - { offsetInCU: 0xF182, offset: 0xF182, size: 0x8, addend: 0x0, symName: __ZNSt3__15dequeIP10BinaryNodeNS_9allocatorIS2_EEE5frontEv, symObjAddr: 0x4FAC, symBinAddr: 0x100006D7C, symSize: 0x50 }
  - { offsetInCU: 0xF1AA, offset: 0xF1AA, size: 0x8, addend: 0x0, symName: __ZNSt3__15dequeIP10BinaryNodeNS_9allocatorIS2_EEE9pop_frontEv, symObjAddr: 0x4FFC, symBinAddr: 0x100006DCC, symSize: 0xAC }
  - { offsetInCU: 0xF1E1, offset: 0xF1E1, size: 0x8, addend: 0x0, symName: __ZNSt3__15dequeIP10BinaryNodeNS_9allocatorIS2_EEE26__maybe_remove_front_spareB7v160006Eb, symObjAddr: 0x50BC, symBinAddr: 0x100006E8C, symSize: 0xDC }
  - { offsetInCU: 0xF216, offset: 0xF216, size: 0x8, addend: 0x0, symName: __ZNKSt3__15dequeIP10BinaryNodeNS_9allocatorIS2_EEE20__front_spare_blocksB7v160006Ev, symObjAddr: 0x5198, symBinAddr: 0x100006F68, symSize: 0x2C }
  - { offsetInCU: 0xF23C, offset: 0xF23C, size: 0x8, addend: 0x0, symName: __ZNSt3__112basic_stringIcNS_11char_traitsIcEENS_9allocatorIcEEEC2B7v160006IDnEEPKc, symObjAddr: 0x51C4, symBinAddr: 0x100006F94, symSize: 0x60 }
  - { offsetInCU: 0xF307, offset: 0xF307, size: 0x8, addend: 0x0, symName: __ZNKSt3__113basic_istreamIcNS_11char_traitsIcEEE6sentrycvbB7v160006Ev, symObjAddr: 0x5224, symBinAddr: 0x100006FF4, symSize: 0x1C }
  - { offsetInCU: 0xF32D, offset: 0xF32D, size: 0x8, addend: 0x0, symName: __ZNSt3__112basic_stringIcNS_11char_traitsIcEENS_9allocatorIcEEE5clearB7v160006Ev, symObjAddr: 0x5240, symBinAddr: 0x100007010, symSize: 0x88 }
  - { offsetInCU: 0xF355, offset: 0xF355, size: 0x8, addend: 0x0, symName: __ZNKSt3__112basic_stringIcNS_11char_traitsIcEENS_9allocatorIcEEE8max_sizeB7v160006Ev, symObjAddr: 0x52C8, symBinAddr: 0x100007098, symSize: 0xAC }
  - { offsetInCU: 0xF3A8, offset: 0xF3A8, size: 0x8, addend: 0x0, symName: __ZNSt3__114numeric_limitsIlE3maxB7v160006Ev, symObjAddr: 0x5374, symBinAddr: 0x100007144, symSize: 0x14 }
  - { offsetInCU: 0xF3BC, offset: 0xF3BC, size: 0x8, addend: 0x0, symName: __ZNSt3__115basic_streambufIcNS_11char_traitsIcEEE5sgetcB7v160006Ev, symObjAddr: 0x5388, symBinAddr: 0x100007158, symSize: 0x70 }
  - { offsetInCU: 0xF3E2, offset: 0xF3E2, size: 0x8, addend: 0x0, symName: __ZNSt3__111char_traitsIcE12to_char_typeEi, symObjAddr: 0x53F8, symBinAddr: 0x1000071C8, symSize: 0x18 }
  - { offsetInCU: 0xF405, offset: 0xF405, size: 0x8, addend: 0x0, symName: __ZNKSt3__15ctypeIcE2isB7v160006Ejc, symObjAddr: 0x5410, symBinAddr: 0x1000071E0, symSize: 0x7C }
  - { offsetInCU: 0xF449, offset: 0xF449, size: 0x8, addend: 0x0, symName: __ZNSt3__115basic_streambufIcNS_11char_traitsIcEEE6sbumpcB7v160006Ev, symObjAddr: 0x548C, symBinAddr: 0x10000725C, symSize: 0x78 }
  - { offsetInCU: 0xF46F, offset: 0xF46F, size: 0x8, addend: 0x0, symName: __ZNSt3__18ios_base18__setstate_nothrowB7v160006Ej, symObjAddr: 0x5504, symBinAddr: 0x1000072D4, symSize: 0x64 }
  - { offsetInCU: 0xF4A4, offset: 0xF4A4, size: 0x8, addend: 0x0, symName: __ZNKSt3__19basic_iosIcNS_11char_traitsIcEEE10exceptionsB7v160006Ev, symObjAddr: 0x5568, symBinAddr: 0x100007338, symSize: 0x24 }
  - { offsetInCU: 0xF4CA, offset: 0xF4CA, size: 0x8, addend: 0x0, symName: __ZNSt3__111char_traitsIcE6assignERcRKc, symObjAddr: 0x559C, symBinAddr: 0x10000736C, symSize: 0x24 }
  - { offsetInCU: 0xF4FB, offset: 0xF4FB, size: 0x8, addend: 0x0, symName: __ZNSt3__112basic_stringIcNS_11char_traitsIcEENS_9allocatorIcEEE18__get_long_pointerB7v160006Ev, symObjAddr: 0x55C0, symBinAddr: 0x100007390, symSize: 0x28 }
  - { offsetInCU: 0xF521, offset: 0xF521, size: 0x8, addend: 0x0, symName: __ZNSt3__112basic_stringIcNS_11char_traitsIcEENS_9allocatorIcEEE15__set_long_sizeB7v160006Em, symObjAddr: 0x55E8, symBinAddr: 0x1000073B8, symSize: 0x38 }
  - { offsetInCU: 0xF556, offset: 0xF556, size: 0x8, addend: 0x0, symName: __ZNSt3__112basic_stringIcNS_11char_traitsIcEENS_9allocatorIcEEE19__get_short_pointerB7v160006Ev, symObjAddr: 0x5620, symBinAddr: 0x1000073F0, symSize: 0x28 }
  - { offsetInCU: 0xF57C, offset: 0xF57C, size: 0x8, addend: 0x0, symName: __ZNSt3__112basic_stringIcNS_11char_traitsIcEENS_9allocatorIcEEE16__set_short_sizeB7v160006Em, symObjAddr: 0x5648, symBinAddr: 0x100007418, symSize: 0x78 }
  - { offsetInCU: 0xF5B1, offset: 0xF5B1, size: 0x8, addend: 0x0, symName: __ZNSt3__117__compressed_pairINS_12basic_stringIcNS_11char_traitsIcEENS_9allocatorIcEEE5__repES5_E5firstB7v160006Ev, symObjAddr: 0x56C0, symBinAddr: 0x100007490, symSize: 0x24 }
  - { offsetInCU: 0xF5D7, offset: 0xF5D7, size: 0x8, addend: 0x0, symName: __ZNSt3__122__compressed_pair_elemINS_12basic_stringIcNS_11char_traitsIcEENS_9allocatorIcEEE5__repELi0ELb0EE5__getB7v160006Ev, symObjAddr: 0x56E4, symBinAddr: 0x1000074B4, symSize: 0x14 }
  - { offsetInCU: 0xF5FD, offset: 0xF5FD, size: 0x8, addend: 0x0, symName: __ZNSt3__114pointer_traitsIPcE10pointer_toB7v160006ERc, symObjAddr: 0x56F8, symBinAddr: 0x1000074C8, symSize: 0x14 }
  - { offsetInCU: 0xF62A, offset: 0xF62A, size: 0x8, addend: 0x0, symName: __ZNSt3__116allocator_traitsINS_9allocatorIcEEE8max_sizeB7v160006IS2_vEEmRKS2_, symObjAddr: 0x570C, symBinAddr: 0x1000074DC, symSize: 0x24 }
  - { offsetInCU: 0xF658, offset: 0xF658, size: 0x8, addend: 0x0, symName: __ZNKSt3__112basic_stringIcNS_11char_traitsIcEENS_9allocatorIcEEE7__allocB7v160006Ev, symObjAddr: 0x5730, symBinAddr: 0x100007500, symSize: 0x24 }
  - { offsetInCU: 0xF67E, offset: 0xF67E, size: 0x8, addend: 0x0, symName: __ZNSt3__114numeric_limitsImE3maxB7v160006Ev, symObjAddr: 0x5754, symBinAddr: 0x100007524, symSize: 0x14 }
  - { offsetInCU: 0xF692, offset: 0xF692, size: 0x8, addend: 0x0, symName: __ZNKSt3__19allocatorIcE8max_sizeB7v160006Ev, symObjAddr: 0x5768, symBinAddr: 0x100007538, symSize: 0x14 }
  - { offsetInCU: 0xF6B8, offset: 0xF6B8, size: 0x8, addend: 0x0, symName: __ZNKSt3__117__compressed_pairINS_12basic_stringIcNS_11char_traitsIcEENS_9allocatorIcEEE5__repES5_E6secondB7v160006Ev, symObjAddr: 0x577C, symBinAddr: 0x10000754C, symSize: 0x24 }
  - { offsetInCU: 0xF6DE, offset: 0xF6DE, size: 0x8, addend: 0x0, symName: __ZNKSt3__122__compressed_pair_elemINS_9allocatorIcEELi1ELb1EE5__getB7v160006Ev, symObjAddr: 0x57A0, symBinAddr: 0x100007570, symSize: 0x14 }
  - { offsetInCU: 0xF704, offset: 0xF704, size: 0x8, addend: 0x0, symName: __ZNSt3__123__libcpp_numeric_limitsImLb1EE3maxB7v160006Ev, symObjAddr: 0x57B4, symBinAddr: 0x100007584, symSize: 0x8 }
  - { offsetInCU: 0xF718, offset: 0xF718, size: 0x8, addend: 0x0, symName: __ZNSt3__123__libcpp_numeric_limitsIlLb1EE3maxB7v160006Ev, symObjAddr: 0x57BC, symBinAddr: 0x10000758C, symSize: 0x8 }
  - { offsetInCU: 0xF72C, offset: 0xF72C, size: 0x8, addend: 0x0, symName: __ZNSt3__111char_traitsIcE11to_int_typeEc, symObjAddr: 0x57C4, symBinAddr: 0x100007594, symSize: 0x14 }
  - { offsetInCU: 0xF74E, offset: 0xF74E, size: 0x8, addend: 0x0, symName: __Z7isasciii, symObjAddr: 0x57D8, symBinAddr: 0x1000075A8, symSize: 0x24 }
  - { offsetInCU: 0xF77B, offset: 0xF77B, size: 0x8, addend: 0x0, symName: __ZNKSt3__18ios_base10exceptionsB7v160006Ev, symObjAddr: 0x57FC, symBinAddr: 0x1000075CC, symSize: 0x18 }
  - { offsetInCU: 0xF7A3, offset: 0xF7A3, size: 0x8, addend: 0x0, symName: __ZNKSt3__112basic_stringIcNS_11char_traitsIcEENS_9allocatorIcEEE4sizeB7v160006Ev, symObjAddr: 0x5814, symBinAddr: 0x1000075E4, symSize: 0x54 }
  - { offsetInCU: 0xF7C9, offset: 0xF7C9, size: 0x8, addend: 0x0, symName: __ZNKSt3__112basic_stringIcNS_11char_traitsIcEENS_9allocatorIcEEE15__get_long_sizeB7v160006Ev, symObjAddr: 0x5868, symBinAddr: 0x100007638, symSize: 0x28 }
  - { offsetInCU: 0xF7EF, offset: 0xF7EF, size: 0x8, addend: 0x0, symName: __ZNKSt3__112basic_stringIcNS_11char_traitsIcEENS_9allocatorIcEEE16__get_short_sizeB7v160006Ev, symObjAddr: 0x5890, symBinAddr: 0x100007660, symSize: 0x34 }
...
